Certificate:
    Data:
        Version: 3 (0x2)
        Serial Number: 1 (0x1)
        Signature Algorithm: sha1WithRSAEncryption
        Issuer: C=BA, ST=RS, L=Banja Luka, O=Elektrotehnicki fakultet, OU=Kriptografija i racunarska zastita, CN=Kripto/emailAddress=kripto@gmail.com
        Validity
            Not Before: Jun  9 10:13:30 2021 GMT
            Not After : Jun  9 10:13:30 2022 GMT
        Subject: C=BA, ST=RS, O=Elektrotehnicki fakultet, OU=Kriptografija i racunarska zastita, CN=Kripto/emailAddress=kripto@gmail.com
        Subject Public Key Info:
            Public Key Algorithm: rsaEncryption
                RSA Public-Key: (2048 bit)
                Modulus:
                    00:bb:3f:7c:c9:b0:e2:da:97:4a:aa:e7:ac:e7:22:
                    4e:28:7d:61:0e:5d:b6:c9:3e:5f:de:72:5e:0a:c0:
                    e6:e6:b9:da:09:ac:12:2a:45:55:7a:95:f3:e4:67:
                    24:5c:67:1a:bc:49:16:23:99:3d:54:b6:73:3b:06:
                    82:8c:90:e7:9d:0c:73:77:41:a4:bb:38:ec:d2:d9:
                    7b:92:3a:be:33:f9:a9:57:42:27:c4:59:06:07:99:
                    50:3b:b3:72:ea:7b:8b:3e:c1:c0:46:04:f7:84:04:
                    fa:1c:e3:1c:1e:bb:5d:19:34:73:23:c2:0a:66:53:
                    1b:a1:3d:2d:7d:70:f3:5c:87:c7:ee:e9:28:14:95:
                    97:5b:57:87:37:77:69:48:00:cc:5d:53:cf:3a:44:
                    ea:61:df:f1:7a:4b:56:ef:64:e3:ef:4e:f1:6c:f7:
                    a5:08:48:a6:3e:1a:a4:ff:33:46:17:63:2a:cd:b6:
                    06:ef:92:d6:08:96:2e:01:76:de:d6:2a:0e:74:44:
                    db:bd:b0:39:20:02:5f:b1:8c:f2:03:13:18:8c:6a:
                    b1:c4:be:74:26:a6:5c:22:81:a4:bb:7c:db:cd:e1:
                    d4:d5:76:23:29:bd:80:93:c1:91:d6:8c:26:8d:15:
                    a1:27:03:0a:cb:10:16:b4:bf:dd:12:0e:d8:58:c7:
                    93:9f
                Exponent: 65537 (0x10001)
        X509v3 extensions:
            X509v3 Basic Constraints: 
                CA:FALSE
            X509v3 Extended Key Usage: 
                TLS Web Client Authentication
            Netscape Comment: 
                OpenSSL Generated Certificate
            X509v3 Subject Key Identifier: 
                B1:0E:FC:48:2A:D0:E6:F0:D2:95:38:19:C5:BA:70:6E:DB:37:94:A8
            X509v3 Authority Key Identifier: 
                keyid:39:C2:AF:63:D0:79:00:32:DA:70:23:BB:05:A6:42:84:CB:BD:85:A7

            X509v3 CRL Distribution Points: 

                Full Name:
                  URI:http://192.168.21.89/rootcrl.pem

    Signature Algorithm: sha1WithRSAEncryption
         2c:ee:b6:3a:b8:8b:b2:f5:48:f4:a1:d7:cd:a7:da:2e:74:2c:
         8e:f4:43:16:70:f5:aa:a5:57:73:c5:51:06:33:2a:c3:67:cf:
         b4:58:10:86:b6:0e:bc:d4:21:78:76:93:b5:18:eb:89:7a:68:
         b5:b9:5c:9c:88:a4:45:9e:de:38:91:36:e1:0b:ac:94:51:8e:
         11:11:da:cf:b0:25:01:6a:08:2a:cd:a2:9f:cf:2d:f3:8e:0e:
         c9:14:c6:18:7e:00:79:ff:1c:50:58:a2:0e:a8:4d:67:1c:76:
         d6:2f:19:a5:13:a8:cc:a7:02:2f:0f:18:00:3c:54:21:fa:e9:
         07:60:9f:89:62:2b:e0:4c:44:15:67:eb:fc:fc:e5:a1:c6:5b:
         a1:13:c0:8a:ad:dc:04:68:1d:71:71:ba:92:c7:f9:f6:0e:95:
         d8:6d:ee:2c:54:64:dc:8f:cf:e8:f4:10:9d:26:b1:97:2e:c8:
         47:59:69:80:a9:cb:38:51:08:f0:4c:6c:e2:b2:e9:ce:fa:3f:
         ab:b2:cd:21:d9:5b:ed:10:1c:60:fc:3d:e4:f9:21:ee:2e:86:
         bd:68:dd:a7:3c:ab:64:87:6d:b1:e0:b8:6f:72:57:0f:d5:a9:
         1d:db:26:c2:e2:0b:68:71:9e:ca:14:13:61:ff:ab:cb:ef:4f:
         1e:fe:fe:fa
-----BEGIN CERTIFICATE-----
MIIEjzCCA3egAwIBAgIBATANBgkqhkiG9w0BAQUFADCBsTELMAkGA1UEBhMCQkEx
CzAJBgNVBAgTAlJTMRMwEQYDVQQHEwpCYW5qYSBMdWthMSEwHwYDVQQKExhFbGVr
dHJvdGVobmlja2kgZmFrdWx0ZXQxKzApBgNVBAsTIktyaXB0b2dyYWZpamEgaSBy
YWN1bmFyc2thIHphc3RpdGExDzANBgNVBAMTBktyaXB0bzEfMB0GCSqGSIb3DQEJ
ARYQa3JpcHRvQGdtYWlsLmNvbTAeFw0yMTA2MDkxMDEzMzBaFw0yMjA2MDkxMDEz
MzBaMIGcMQswCQYDVQQGEwJCQTELMAkGA1UECBMCUlMxITAfBgNVBAoTGEVsZWt0
cm90ZWhuaWNraSBmYWt1bHRldDErMCkGA1UECxMiS3JpcHRvZ3JhZmlqYSBpIHJh
Y3VuYXJza2EgemFzdGl0YTEPMA0GA1UEAxMGS3JpcHRvMR8wHQYJKoZIhvcNAQkB
FhBrcmlwdG9AZ21haWwuY29tMIIBIjANBgkqhkiG9w0BAQEFAAOCAQ8AMIIBCgKC
AQEAuz98ybDi2pdKques5yJOKH1hDl22yT5f3nJeCsDm5rnaCawSKkVVepXz5Gck
XGcavEkWI5k9VLZzOwaCjJDnnQxzd0Gkuzjs0tl7kjq+M/mpV0InxFkGB5lQO7Ny
6nuLPsHARgT3hAT6HOMcHrtdGTRzI8IKZlMboT0tfXDzXIfH7ukoFJWXW1eHN3dp
SADMXVPPOkTqYd/xektW72Tj707xbPelCEimPhqk/zNGF2MqzbYG75LWCJYuAXbe
1ioOdETbvbA5IAJfsYzyAxMYjGqxxL50JqZcIoGku3zbzeHU1XYjKb2Ak8GR1owm
jRWhJwMKyxAWtL/dEg7YWMeTnwIDAQABo4HEMIHBMAkGA1UdEwQCMAAwEwYDVR0l
BAwwCgYIKwYBBQUHAwIwLAYJYIZIAYb4QgENBB8WHU9wZW5TU0wgR2VuZXJhdGVk
IENlcnRpZmljYXRlMB0GA1UdDgQWBBSxDvxIKtDm8NKVOBnFunBu2zeUqDAfBgNV
HSMEGDAWgBQ5wq9j0HkAMtpwI7sFpkKEy72FpzAxBgNVHR8EKjAoMCagJKAihiBo
dHRwOi8vMTkyLjE2OC4yMS44OS9yb290Y3JsLnBlbTANBgkqhkiG9w0BAQUFAAOC
AQEALO62OriLsvVI9KHXzafaLnQsjvRDFnD1qqVXc8VRBjMqw2fPtFgQhrYOvNQh
eHaTtRjriXpotblcnIikRZ7eOJE24QuslFGOERHaz7AlAWoIKs2in88t844OyRTG
GH4Aef8cUFiiDqhNZxx21i8ZpROozKcCLw8YADxUIfrpB2CfiWIr4ExEFWfr/Pzl
ocZboRPAiq3cBGgdcXG6ksf59g6V2G3uLFRk3I/P6PQQnSaxly7IR1lpgKnLOFEI
8Exs4rLpzvo/q7LNIdlb7RAcYPw95Pkh7i6GvWjdpzyrZIdtseC4b3JXD9WpHdsm
wuILaHGeyhQTYf+ry+9PHv7++g==
-----END CERTIFICATE-----
