Certificate:
    Data:
        Version: 3 (0x2)
        Serial Number: 2 (0x2)
        Signature Algorithm: sha1WithRSAEncryption
        Issuer: C=BA, ST=RS, L=Banja Luka, O=Elektrotehnicki fakultet, OU=Kriptografija i racunarska zastita, CN=Kripto/emailAddress=kripto@gmail.com
        Validity
            Not Before: Jun  9 10:13:59 2021 GMT
            Not After : Jun  9 10:13:59 2022 GMT
        Subject: C=BA, ST=RS, O=Elektrotehnicki fakultet, OU=Kriptografija i racunarska zastita, CN=Kripto/emailAddress=kripto@gmail.com
        Subject Public Key Info:
            Public Key Algorithm: rsaEncryption
                RSA Public-Key: (2048 bit)
                Modulus:
                    00:ab:a2:ce:eb:e0:d8:34:19:85:bb:31:95:67:9f:
                    80:d0:96:26:14:c2:17:60:3f:1c:7b:37:41:a2:8f:
                    74:14:5b:98:67:28:9e:c6:59:37:e0:50:c5:e8:03:
                    db:28:c4:83:49:9f:88:fe:80:c1:a5:de:0f:8c:b8:
                    6b:bb:50:8f:72:97:d0:a2:c7:22:fe:7e:6b:06:f3:
                    ba:7a:7c:d8:ed:ab:5d:f9:d7:a9:2b:24:e1:13:f9:
                    02:23:bc:bc:20:9c:04:9d:92:4c:dd:56:6c:7f:a8:
                    40:07:81:8e:9e:b5:e1:3f:cb:4c:e6:0b:f0:f3:4a:
                    34:f4:10:b9:26:99:43:9c:55:da:d8:f2:25:e0:26:
                    63:4e:a2:8a:97:62:53:4e:6e:e1:4a:68:2f:f8:df:
                    fe:62:8d:1f:cf:4d:ec:5c:51:4c:9c:83:ea:d8:8a:
                    24:3c:23:bb:d5:ff:cc:39:6a:9f:46:30:6c:b4:b1:
                    ed:22:41:1c:c4:35:a4:64:9c:7a:0b:4e:41:57:c5:
                    80:bf:f0:53:43:4f:aa:c0:f5:c1:db:b7:01:47:52:
                    d3:49:23:a2:05:b9:d5:74:05:fb:b7:be:fc:6d:ad:
                    ea:54:92:6f:b4:a3:f9:8c:44:49:8c:9a:2e:6f:5a:
                    ee:79:da:d8:30:b5:aa:e8:e4:83:1f:78:1f:d6:ce:
                    2b:2f
                Exponent: 65537 (0x10001)
        X509v3 extensions:
            X509v3 Basic Constraints: 
                CA:FALSE
            X509v3 Extended Key Usage: 
                TLS Web Client Authentication
            Netscape Comment: 
                OpenSSL Generated Certificate
            X509v3 Subject Key Identifier: 
                32:C9:5E:91:40:54:59:75:D1:96:B8:28:B6:1A:DB:E9:9A:FD:8A:45
            X509v3 Authority Key Identifier: 
                keyid:39:C2:AF:63:D0:79:00:32:DA:70:23:BB:05:A6:42:84:CB:BD:85:A7

            X509v3 CRL Distribution Points: 

                Full Name:
                  URI:http://192.168.21.89/rootcrl.pem

    Signature Algorithm: sha1WithRSAEncryption
         62:3d:02:3f:a4:51:ec:b6:4b:10:61:5d:3f:12:71:e8:95:67:
         63:cf:cb:39:17:78:18:fb:51:bc:b0:c4:ee:36:92:f6:18:6f:
         b1:e5:d9:25:90:e1:86:32:b3:39:62:e2:d6:8f:dc:d1:49:29:
         0d:a9:bb:1b:76:7d:fe:c8:53:e4:09:c2:3e:46:d1:fc:b2:78:
         ab:75:72:70:d1:26:3c:b1:3b:83:c1:20:fa:e7:ba:c3:d7:aa:
         6e:3d:59:85:e3:bc:26:ec:5a:1c:e6:83:6b:5c:42:a6:29:6d:
         34:69:9b:a2:04:cd:50:34:bb:c2:67:f8:44:6c:60:08:9f:e8:
         89:ca:73:fe:0b:44:5c:5f:78:54:37:7f:76:4a:78:8a:c1:cb:
         1d:0e:db:e5:7e:c8:61:71:b9:c7:21:62:41:f6:ad:16:bc:46:
         aa:13:57:b7:62:bb:9a:f6:57:36:1a:9c:03:14:cc:75:b6:31:
         c5:d3:53:0d:a8:8a:2d:73:b2:3b:25:d7:4b:6b:a2:cb:93:b7:
         7a:67:b8:00:b0:b2:25:19:25:c5:8e:7c:e6:1f:cb:7d:c7:62:
         f9:0e:cd:6e:01:db:e4:a5:cd:09:4c:4d:8c:19:94:ea:e3:2b:
         41:64:44:d5:83:5e:73:d0:19:33:d0:5c:e1:6a:17:f3:11:be:
         68:53:28:8d
-----BEGIN CERTIFICATE-----
MIIEjzCCA3egAwIBAgIBAjANBgkqhkiG9w0BAQUFADCBsTELMAkGA1UEBhMCQkEx
CzAJBgNVBAgTAlJTMRMwEQYDVQQHEwpCYW5qYSBMdWthMSEwHwYDVQQKExhFbGVr
dHJvdGVobmlja2kgZmFrdWx0ZXQxKzApBgNVBAsTIktyaXB0b2dyYWZpamEgaSBy
YWN1bmFyc2thIHphc3RpdGExDzANBgNVBAMTBktyaXB0bzEfMB0GCSqGSIb3DQEJ
ARYQa3JpcHRvQGdtYWlsLmNvbTAeFw0yMTA2MDkxMDEzNTlaFw0yMjA2MDkxMDEz
NTlaMIGcMQswCQYDVQQGEwJCQTELMAkGA1UECBMCUlMxITAfBgNVBAoTGEVsZWt0
cm90ZWhuaWNraSBmYWt1bHRldDErMCkGA1UECxMiS3JpcHRvZ3JhZmlqYSBpIHJh
Y3VuYXJza2EgemFzdGl0YTEPMA0GA1UEAxMGS3JpcHRvMR8wHQYJKoZIhvcNAQkB
FhBrcmlwdG9AZ21haWwuY29tMIIBIjANBgkqhkiG9w0BAQEFAAOCAQ8AMIIBCgKC
AQEAq6LO6+DYNBmFuzGVZ5+A0JYmFMIXYD8cezdBoo90FFuYZyiexlk34FDF6APb
KMSDSZ+I/oDBpd4PjLhru1CPcpfQosci/n5rBvO6enzY7atd+depKyThE/kCI7y8
IJwEnZJM3VZsf6hAB4GOnrXhP8tM5gvw80o09BC5JplDnFXa2PIl4CZjTqKKl2JT
Tm7hSmgv+N/+Yo0fz03sXFFMnIPq2IokPCO71f/MOWqfRjBstLHtIkEcxDWkZJx6
C05BV8WAv/BTQ0+qwPXB27cBR1LTSSOiBbnVdAX7t778ba3qVJJvtKP5jERJjJou
b1ruedrYMLWq6OSDH3gf1s4rLwIDAQABo4HEMIHBMAkGA1UdEwQCMAAwEwYDVR0l
BAwwCgYIKwYBBQUHAwIwLAYJYIZIAYb4QgENBB8WHU9wZW5TU0wgR2VuZXJhdGVk
IENlcnRpZmljYXRlMB0GA1UdDgQWBBQyyV6RQFRZddGWuCi2Gtvpmv2KRTAfBgNV
HSMEGDAWgBQ5wq9j0HkAMtpwI7sFpkKEy72FpzAxBgNVHR8EKjAoMCagJKAihiBo
dHRwOi8vMTkyLjE2OC4yMS44OS9yb290Y3JsLnBlbTANBgkqhkiG9w0BAQUFAAOC
AQEAYj0CP6RR7LZLEGFdPxJx6JVnY8/LORd4GPtRvLDE7jaS9hhvseXZJZDhhjKz
OWLi1o/c0UkpDam7G3Z9/shT5AnCPkbR/LJ4q3VycNEmPLE7g8Eg+ue6w9eqbj1Z
heO8JuxaHOaDa1xCpiltNGmbogTNUDS7wmf4RGxgCJ/oicpz/gtEXF94VDd/dkp4
isHLHQ7b5X7IYXG5xyFiQfatFrxGqhNXt2K7mvZXNhqcAxTMdbYxxdNTDaiKLXOy
OyXXS2uiy5O3eme4ALCyJRklxY585h/Lfcdi+Q7NbgHb5KXNCUxNjBmU6uMrQWRE
1YNec9AZM9Bc4WoX8xG+aFMojQ==
-----END CERTIFICATE-----
