Certificate:
    Data:
        Version: 3 (0x2)
        Serial Number: 3 (0x3)
        Signature Algorithm: sha1WithRSAEncryption
        Issuer: C=BA, ST=RS, L=Banja Luka, O=Elektrotehnicki fakultet, OU=Kriptografija i racunarska zastita, CN=Kripto/emailAddress=kripto@gmail.com
        Validity
            Not Before: Jun  9 10:14:29 2021 GMT
            Not After : Jun  9 10:14:29 2022 GMT
        Subject: C=BA, ST=RS, O=Elektrotehnicki fakultet, OU=Kriptografija i racunarska zastita, CN=Kripto/emailAddress=kripto@gmail.com
        Subject Public Key Info:
            Public Key Algorithm: rsaEncryption
                RSA Public-Key: (2048 bit)
                Modulus:
                    00:f0:93:76:61:d0:bd:c0:aa:49:8c:96:64:2e:c6:
                    a6:a8:e8:1d:b0:39:2f:aa:7b:01:07:b7:f4:9b:01:
                    b9:f2:ad:d5:61:05:26:39:92:42:18:58:88:c5:7c:
                    95:43:d5:74:f4:33:9f:b2:87:a6:8f:8a:14:c1:86:
                    4b:d0:ef:30:80:83:17:bf:6e:0b:cc:03:fb:7c:1d:
                    14:5c:b1:55:a9:0f:22:1c:a1:98:18:fd:7b:e3:bc:
                    04:6d:c2:eb:87:ea:b4:17:4a:63:ce:20:ba:d1:02:
                    2c:f8:2e:30:c8:ac:e2:e7:08:83:61:d5:34:ce:bc:
                    bb:2a:bd:a0:36:3e:36:32:c4:e2:d3:17:6a:90:70:
                    51:b4:80:d3:1d:e2:67:b9:67:16:d9:21:cc:13:a3:
                    89:89:ac:ac:ed:7f:0f:24:8d:b1:b0:91:5f:c3:49:
                    ed:4b:c5:eb:95:e6:79:b3:e1:34:7b:d4:86:28:08:
                    d7:b1:d1:1d:92:c2:7f:a8:59:c6:d7:f0:92:40:cd:
                    f4:14:44:d1:a5:7b:12:de:03:86:c7:89:10:bc:86:
                    82:a9:d5:94:57:15:4d:79:a4:fd:eb:62:77:db:f0:
                    22:18:dd:99:9a:ce:1f:66:92:1a:45:ec:da:68:93:
                    1b:3e:e4:f6:c9:46:8b:12:e4:e7:a5:38:3d:14:73:
                    e8:63
                Exponent: 65537 (0x10001)
        X509v3 extensions:
            X509v3 Basic Constraints: 
                CA:FALSE
            X509v3 Extended Key Usage: 
                TLS Web Client Authentication
            Netscape Comment: 
                OpenSSL Generated Certificate
            X509v3 Subject Key Identifier: 
                DB:1A:46:2F:64:C2:7C:C3:7A:DE:8C:7C:BD:F3:E0:E0:70:F7:AE:02
            X509v3 Authority Key Identifier: 
                keyid:39:C2:AF:63:D0:79:00:32:DA:70:23:BB:05:A6:42:84:CB:BD:85:A7

            X509v3 CRL Distribution Points: 

                Full Name:
                  URI:http://192.168.21.89/rootcrl.pem

    Signature Algorithm: sha1WithRSAEncryption
         ac:c8:8c:e7:32:78:f7:84:9b:05:97:3c:28:f9:7e:8e:1c:28:
         9d:b3:6b:34:af:d2:71:38:37:38:05:7f:29:0d:86:cf:98:67:
         01:95:ea:3b:88:d8:d7:b9:39:e1:e7:4f:4b:a0:29:70:99:01:
         84:c0:e8:9d:ce:64:74:b2:33:ee:c7:22:97:17:74:e8:d7:35:
         96:cf:9a:77:9a:ee:c6:51:83:97:ed:f3:ca:55:90:39:56:a5:
         5e:ac:f2:98:a6:57:b6:77:b9:3e:bd:80:fe:cd:b8:0d:7c:bc:
         b4:0a:da:be:61:47:04:e1:19:c3:33:be:86:d4:94:c7:25:fc:
         a6:59:d8:cb:4e:fa:9f:91:cb:d5:bf:ee:70:b3:b6:ba:19:c1:
         fe:26:a7:27:d8:21:5e:f4:75:c9:18:cb:fc:42:f6:dd:a2:c6:
         28:9c:f4:22:e6:66:47:c5:a7:0c:cf:06:40:45:cc:55:c5:5a:
         88:d9:b7:94:58:c7:fd:e3:f3:7d:54:8a:25:34:b5:19:57:a9:
         d6:a8:c9:e0:74:5d:5c:41:65:44:46:a2:19:dd:ce:31:5d:7f:
         0a:ab:10:f9:04:38:db:88:84:e6:64:35:48:1c:91:24:f8:00:
         af:6f:b9:14:da:a6:c5:3c:64:9d:09:eb:03:22:b9:14:3a:b0:
         27:a8:5a:6c
-----BEGIN CERTIFICATE-----
MIIEjzCCA3egAwIBAgIBAzANBgkqhkiG9w0BAQUFADCBsTELMAkGA1UEBhMCQkEx
CzAJBgNVBAgTAlJTMRMwEQYDVQQHEwpCYW5qYSBMdWthMSEwHwYDVQQKExhFbGVr
dHJvdGVobmlja2kgZmFrdWx0ZXQxKzApBgNVBAsTIktyaXB0b2dyYWZpamEgaSBy
YWN1bmFyc2thIHphc3RpdGExDzANBgNVBAMTBktyaXB0bzEfMB0GCSqGSIb3DQEJ
ARYQa3JpcHRvQGdtYWlsLmNvbTAeFw0yMTA2MDkxMDE0MjlaFw0yMjA2MDkxMDE0
MjlaMIGcMQswCQYDVQQGEwJCQTELMAkGA1UECBMCUlMxITAfBgNVBAoTGEVsZWt0
cm90ZWhuaWNraSBmYWt1bHRldDErMCkGA1UECxMiS3JpcHRvZ3JhZmlqYSBpIHJh
Y3VuYXJza2EgemFzdGl0YTEPMA0GA1UEAxMGS3JpcHRvMR8wHQYJKoZIhvcNAQkB
FhBrcmlwdG9AZ21haWwuY29tMIIBIjANBgkqhkiG9w0BAQEFAAOCAQ8AMIIBCgKC
AQEA8JN2YdC9wKpJjJZkLsamqOgdsDkvqnsBB7f0mwG58q3VYQUmOZJCGFiIxXyV
Q9V09DOfsoemj4oUwYZL0O8wgIMXv24LzAP7fB0UXLFVqQ8iHKGYGP1747wEbcLr
h+q0F0pjziC60QIs+C4wyKzi5wiDYdU0zry7Kr2gNj42MsTi0xdqkHBRtIDTHeJn
uWcW2SHME6OJiays7X8PJI2xsJFfw0ntS8XrleZ5s+E0e9SGKAjXsdEdksJ/qFnG
1/CSQM30FETRpXsS3gOGx4kQvIaCqdWUVxVNeaT962J32/AiGN2Zms4fZpIaReza
aJMbPuT2yUaLEuTnpTg9FHPoYwIDAQABo4HEMIHBMAkGA1UdEwQCMAAwEwYDVR0l
BAwwCgYIKwYBBQUHAwIwLAYJYIZIAYb4QgENBB8WHU9wZW5TU0wgR2VuZXJhdGVk
IENlcnRpZmljYXRlMB0GA1UdDgQWBBTbGkYvZMJ8w3rejHy98+DgcPeuAjAfBgNV
HSMEGDAWgBQ5wq9j0HkAMtpwI7sFpkKEy72FpzAxBgNVHR8EKjAoMCagJKAihiBo
dHRwOi8vMTkyLjE2OC4yMS44OS9yb290Y3JsLnBlbTANBgkqhkiG9w0BAQUFAAOC
AQEArMiM5zJ494SbBZc8KPl+jhwonbNrNK/ScTg3OAV/KQ2Gz5hnAZXqO4jY17k5
4edPS6ApcJkBhMDonc5kdLIz7scilxd06Nc1ls+ad5ruxlGDl+3zylWQOValXqzy
mKZXtne5Pr2A/s24DXy8tAravmFHBOEZwzO+htSUxyX8plnYy076n5HL1b/ucLO2
uhnB/ianJ9ghXvR1yRjL/EL23aLGKJz0IuZmR8WnDM8GQEXMVcVaiNm3lFjH/ePz
fVSKJTS1GVep1qjJ4HRdXEFlREaiGd3OMV1/CqsQ+QQ424iE5mQ1SByRJPgAr2+5
FNqmxTxknQnrAyK5FDqwJ6habA==
-----END CERTIFICATE-----
